target datalayout = "e-m:e-p270:32:32-p271:32:32-p272:64:64-i64:64-i128:128-f80:128-n8:16:32:64-S128"
target triple = "x86_64-pc-linux-gnu"

%"struct.std::array" = type { [62 x i32] }
%"struct.folly::to_signed_fn" = type { i8 }
%"struct.folly::to_unsigned_fn" = type { i8 }

@_ZN5folly9to_signedE = linkonce_odr constant %"struct.folly::to_signed_fn" undef, comdat, align 1
@_ZN5folly11to_unsignedE = linkonce_odr constant %"struct.folly::to_unsigned_fn" undef, comdat, align 1

; Function Attrs: mustprogress nounwind uwtable
define linkonce_odr noundef i64 @_ZNK5folly12to_signed_fnclIJEmEENSt11make_signedIT0_E4typeERKS3_(ptr noundef nonnull align 1 dereferenceable(1) %0, ptr noundef nonnull align 8 dereferenceable(8) %1) #2 comdat align 2 {
  %3 = alloca ptr, align 8
  %4 = alloca ptr, align 8
  %5 = alloca i64, align 8
  store ptr %0, ptr %3, align 8, !tbaa !21
  store ptr %1, ptr %4, align 8, !tbaa !23
  call void @llvm.lifetime.start.p0(i64 8, ptr %5) #5
  store i64 9223372036854775807, ptr %5, align 8, !tbaa !11
  %6 = load ptr, ptr %4, align 8, !tbaa !23
  %7 = load i64, ptr %6, align 8, !tbaa !11
  %8 = icmp ult i64 9223372036854775807, %7
  br i1 %8, label %9, label %15

9:                                                ; preds = %2
  %10 = load ptr, ptr %4, align 8, !tbaa !23
  %11 = load i64, ptr %10, align 8, !tbaa !11
  %12 = xor i64 %11, -1
  %13 = sub nsw i64 0, %12
  %14 = add nsw i64 %13, -1
  br label %18

15:                                               ; preds = %2
  %16 = load ptr, ptr %4, align 8, !tbaa !23
  %17 = load i64, ptr %16, align 8, !tbaa !11
  br label %18

18:                                               ; preds = %15, %9
  %19 = phi i64 [ %14, %9 ], [ %17, %15 ]
  call void @llvm.lifetime.end.p0(i64 8, ptr %5) #5
  ret i64 %19
}

; Function Attrs: mustprogress nounwind uwtable
define linkonce_odr noundef i64 @_ZNK5folly14to_unsigned_fnclIJEmEENSt13make_unsignedIT0_E4typeERKS3_(ptr noundef nonnull align 1 dereferenceable(1) %0, ptr noundef nonnull align 8 dereferenceable(8) %1) #2 comdat align 2 {
  %3 = alloca ptr, align 8
  %4 = alloca ptr, align 8
  store ptr %0, ptr %3, align 8, !tbaa !25
  store ptr %1, ptr %4, align 8, !tbaa !23
  %5 = load ptr, ptr %4, align 8, !tbaa !23
  %6 = load i64, ptr %5, align 8, !tbaa !11
  ret i64 %6
}

; Function Attrs: mustprogress nounwind uwtable
define linkonce_odr noundef i64 @_ZN5folly6detail14bits_to_signedIlmEENSt11make_signedIT_E4typeET0_(i64 noundef %0) #2 comdat {
  %2 = alloca i64, align 8
  %3 = alloca i64, align 8
  store i64 %0, ptr %2, align 8, !tbaa !11
  call void @llvm.lifetime.start.p0(i64 8, ptr %3) #5
  %4 = call noundef i64 @_ZNK5folly14to_unsigned_fnclIJEmEENSt13make_unsignedIT0_E4typeERKS3_(ptr noundef nonnull align 1 dereferenceable(1) @_ZN5folly11to_unsignedE, ptr noundef nonnull align 8 dereferenceable(8) %2) #5
  store i64 %4, ptr %3, align 8, !tbaa !11
  %5 = call noundef i64 @_ZNK5folly12to_signed_fnclIJEmEENSt11make_signedIT0_E4typeERKS3_(ptr noundef nonnull align 1 dereferenceable(1) @_ZN5folly9to_signedE, ptr noundef nonnull align 8 dereferenceable(8) %3) #5
  call void @llvm.lifetime.end.p0(i64 8, ptr %3) #5
  ret i64 %5
}

; Function Attrs: mustprogress nounwind uwtable
define linkonce_odr noundef ptr @_ZNSt14__array_traitsIjLm62EE6_S_ptrERA62_Kj(ptr noundef nonnull align 4 dereferenceable(248) %0) #2 comdat align 2 {
  %2 = alloca ptr, align 8
  store ptr %0, ptr %2, align 8, !tbaa !17
  %3 = load ptr, ptr %2, align 8, !tbaa !17
  %4 = getelementptr inbounds [62 x i32], ptr %3, i64 0, i64 0
  ret ptr %4
}

; Function Attrs: inlinehint mustprogress uwtable
define linkonce_odr noundef i32 @_ZN5folly12findFirstSetImEEjT_(i64 noundef %0) #3 comdat {
  %2 = alloca i64, align 8
  store i64 %0, ptr %2, align 8, !tbaa !11
  %3 = load i64, ptr %2, align 8, !tbaa !11
  %4 = call noundef i64 @_ZN5folly6detail14bits_to_signedIlmEENSt11make_signedIT_E4typeET0_(i64 noundef %3)
  %5 = call i64 @llvm.cttz.i64(i64 %4, i1 true)
  %6 = add i64 %5, 1
  %7 = icmp eq i64 %4, 0
  %8 = select i1 %7, i64 0, i64 %6
  %9 = trunc i64 %8 to i32
  ret i32 %9
}

; Function Attrs: mustprogress nounwind uwtable
define linkonce_odr noundef ptr @_ZNKSt5arrayIjLm62EE4dataEv(ptr noundef nonnull align 4 dereferenceable(248) %0) #2 comdat align 2 {
  %2 = alloca ptr, align 8
  store ptr %0, ptr %2, align 8, !tbaa !15
  %3 = load ptr, ptr %2, align 8
  %4 = getelementptr inbounds nuw %"struct.std::array", ptr %3, i32 0, i32 0
  %5 = call noundef ptr @_ZNSt14__array_traitsIjLm62EE6_S_ptrERA62_Kj(ptr noundef nonnull align 4 dereferenceable(248) %4) #5
  ret ptr %5
}

; Function Attrs: mustprogress uwtable
define internal noundef i32 @_ZN5follyL19crc32_append_zeroesIPFjjjjEEEjT_jmjRKSt5arrayIjLm62EE(ptr noundef %0, i32 noundef %1, i64 noundef %2, i32 noundef %3, ptr noundef nonnull align 4 dereferenceable(248) %4) #0 {
  %6 = alloca ptr, align 8
  %7 = alloca i32, align 4
  %8 = alloca i64, align 8
  %9 = alloca i32, align 4
  %10 = alloca ptr, align 8
  %11 = alloca ptr, align 8
  %12 = alloca i32, align 4
  store ptr %0, ptr %6, align 8, !tbaa !13
  store i32 %1, ptr %7, align 4, !tbaa !7
  store i64 %2, ptr %8, align 8, !tbaa !11
  store i32 %3, ptr %9, align 4, !tbaa !7
  store ptr %4, ptr %10, align 8, !tbaa !15
  call void @llvm.lifetime.start.p0(i64 8, ptr %11) #5
  %13 = load ptr, ptr %10, align 8, !tbaa !15
  %14 = call noundef ptr @_ZNKSt5arrayIjLm62EE4dataEv(ptr noundef nonnull align 4 dereferenceable(248) %13) #5
  store ptr %14, ptr %11, align 8, !tbaa !17
  %15 = load i64, ptr %8, align 8, !tbaa !11
  %16 = lshr i64 %15, 2
  store i64 %16, ptr %8, align 8, !tbaa !11
  br label %17

17:                                               ; preds = %20, %5
  %18 = load i64, ptr %8, align 8, !tbaa !11
  %19 = icmp ne i64 %18, 0
  br i1 %19, label %20, label %42

20:                                               ; preds = %17
  call void @llvm.lifetime.start.p0(i64 4, ptr %12) #5
  %21 = load i64, ptr %8, align 8, !tbaa !11
  %22 = call noundef i32 @_ZN5folly12findFirstSetImEEjT_(i64 noundef %21)
  %23 = sub i32 %22, 1
  store i32 %23, ptr %12, align 4, !tbaa !7
  %24 = load i32, ptr %12, align 4, !tbaa !7
  %25 = load i64, ptr %8, align 8, !tbaa !11
  %26 = zext i32 %24 to i64
  %27 = lshr i64 %25, %26
  store i64 %27, ptr %8, align 8, !tbaa !11
  %28 = load i32, ptr %12, align 4, !tbaa !7
  %29 = load ptr, ptr %11, align 8, !tbaa !17
  %30 = zext i32 %28 to i64
  %31 = getelementptr inbounds nuw i32, ptr %29, i64 %30
  store ptr %31, ptr %11, align 8, !tbaa !17
  %32 = load ptr, ptr %6, align 8, !tbaa !13
  %33 = load i32, ptr %7, align 4, !tbaa !7
  %34 = load ptr, ptr %11, align 8, !tbaa !17
  %35 = load i32, ptr %34, align 4, !tbaa !7
  %36 = load i32, ptr %9, align 4, !tbaa !7
  %37 = call noundef i32 %32(i32 noundef %33, i32 noundef %35, i32 noundef %36)
  store i32 %37, ptr %7, align 4, !tbaa !7
  %38 = load i64, ptr %8, align 8, !tbaa !11
  %39 = lshr i64 %38, 1
  store i64 %39, ptr %8, align 8, !tbaa !11
  %40 = load ptr, ptr %11, align 8, !tbaa !17
  %41 = getelementptr inbounds nuw i32, ptr %40, i32 1
  store ptr %41, ptr %11, align 8, !tbaa !17
  call void @llvm.lifetime.end.p0(i64 4, ptr %12) #5
  br label %17, !llvm.loop !19

42:                                               ; preds = %17
  %43 = load i32, ptr %7, align 4, !tbaa !7
  call void @llvm.lifetime.end.p0(i64 8, ptr %11) #5
  ret i32 %43
}

; Function Attrs: mustprogress uwtable
define noundef i32 @_ZN5folly6detail16crc32_combine_swEjjm(i32 noundef %0, i32 noundef %1, i64 noundef %2) #0 {
  %4 = alloca i32, align 4
  %5 = alloca i32, align 4
  %6 = alloca i64, align 8
  store i32 %0, ptr %4, align 4, !tbaa !7
  store i32 %1, ptr %5, align 4, !tbaa !7
  store i64 %2, ptr %6, align 8, !tbaa !11
  %7 = load i32, ptr %5, align 4, !tbaa !7
  %8 = load i32, ptr %4, align 4, !tbaa !7
  %9 = load i64, ptr %6, align 8, !tbaa !11
  %10 = call noundef i32 @_ZN5follyL19crc32_append_zeroesIPFjjjjEEEjT_jmjRKSt5arrayIjLm62EE(ptr noundef @_ZN5follyL14gf_multiply_swEjjj, i32 noundef %8, i64 noundef %9, i32 noundef -306674912, ptr noundef nonnull align 4 dereferenceable(248) @_ZN5follyL12crc32_powersE)
  %11 = xor i32 %7, %10
  ret i32 %11
}